; Function Attrs: mustprogress nofree norecurse nosync nounwind willreturn memory(read, inaccessiblemem: none) uwtable
define hidden i32 @dom_get_strict_error(ptr noundef readonly %0) local_unnamed_addr #4 {
  %.not.i = icmp eq ptr %0, null
  br i1 %.not.i, label %5, label %2

2:                                                ; preds = %1
  %3 = getelementptr inbounds i8, ptr %0, i64 8
  %4 = load ptr, ptr %3, align 8
  %.not6.i = icmp eq ptr %4, null
  br i1 %.not6.i, label %5, label %dom_get_doc_props_read_only.exit

5:                                                ; preds = %2, %1
  br label %dom_get_doc_props_read_only.exit

dom_get_doc_props_read_only.exit:                 ; preds = %2, %5
  %.0.i = phi ptr [ @default_doc_props, %5 ], [ %4, %2 ]
  %6 = getelementptr inbounds i8, ptr %.0.i, i64 13
  %7 = load i8, ptr %6, align 1
  %8 = and i8 %7, 1
  %9 = zext nneg i8 %8 to i32
  ret i32 %9
}